; Function Attrs: mustprogress nofree norecurse nosync nounwind willreturn memory(none) uwtable
define zeroext range(i8 0, 2) i8 @l_Lean_Meta_Grind_Arith_Cutsat_beqSupportedTermKind____x40_Lean_Meta_Tactic_Grind_Arith_Cutsat_EqCnstr___hyg_6442_(i8 noundef zeroext %0, i8 noundef zeroext %1) local_unnamed_addr #3 {
  switch i8 %0, label %9 [
    i8 0, label %l___private_Lean_Meta_Tactic_Grind_Arith_Cutsat_EqCnstr_0__Lean_Meta_Grind_Arith_Cutsat_SupportedTermKind_toCtorIdx.exit
    i8 1, label %3
    i8 2, label %4
    i8 3, label %5
    i8 4, label %6
    i8 5, label %7
    i8 6, label %8
  ]

3:                                                ; preds = %2
  br label %l___private_Lean_Meta_Tactic_Grind_Arith_Cutsat_EqCnstr_0__Lean_Meta_Grind_Arith_Cutsat_SupportedTermKind_toCtorIdx.exit

4:                                                ; preds = %2
  br label %l___private_Lean_Meta_Tactic_Grind_Arith_Cutsat_EqCnstr_0__Lean_Meta_Grind_Arith_Cutsat_SupportedTermKind_toCtorIdx.exit

5:                                                ; preds = %2
  br label %l___private_Lean_Meta_Tactic_Grind_Arith_Cutsat_EqCnstr_0__Lean_Meta_Grind_Arith_Cutsat_SupportedTermKind_toCtorIdx.exit

6:                                                ; preds = %2
  br label %l___private_Lean_Meta_Tactic_Grind_Arith_Cutsat_EqCnstr_0__Lean_Meta_Grind_Arith_Cutsat_SupportedTermKind_toCtorIdx.exit

7:                                                ; preds = %2
  br label %l___private_Lean_Meta_Tactic_Grind_Arith_Cutsat_EqCnstr_0__Lean_Meta_Grind_Arith_Cutsat_SupportedTermKind_toCtorIdx.exit

8:                                                ; preds = %2
  br label %l___private_Lean_Meta_Tactic_Grind_Arith_Cutsat_EqCnstr_0__Lean_Meta_Grind_Arith_Cutsat_SupportedTermKind_toCtorIdx.exit

9:                                                ; preds = %2
  br label %l___private_Lean_Meta_Tactic_Grind_Arith_Cutsat_EqCnstr_0__Lean_Meta_Grind_Arith_Cutsat_SupportedTermKind_toCtorIdx.exit

l___private_Lean_Meta_Tactic_Grind_Arith_Cutsat_EqCnstr_0__Lean_Meta_Grind_Arith_Cutsat_SupportedTermKind_toCtorIdx.exit: ; preds = %2, %3, %4, %5, %6, %7, %8, %9
  %.0.i9 = phi ptr [ inttoptr (i64 15 to ptr), %9 ], [ inttoptr (i64 13 to ptr), %8 ], [ inttoptr (i64 11 to ptr), %7 ], [ inttoptr (i64 9 to ptr), %6 ], [ inttoptr (i64 7 to ptr), %5 ], [ inttoptr (i64 5 to ptr), %4 ], [ inttoptr (i64 3 to ptr), %3 ], [ inttoptr (i64 1 to ptr), %2 ]
  switch i8 %1, label %16 [
    i8 0, label %lean_dec.exit
    i8 1, label %10
    i8 2, label %11
    i8 3, label %12
    i8 4, label %13
    i8 5, label %14
    i8 6, label %15
  ]

10:                                               ; preds = %l___private_Lean_Meta_Tactic_Grind_Arith_Cutsat_EqCnstr_0__Lean_Meta_Grind_Arith_Cutsat_SupportedTermKind_toCtorIdx.exit
  br label %lean_dec.exit

11:                                               ; preds = %l___private_Lean_Meta_Tactic_Grind_Arith_Cutsat_EqCnstr_0__Lean_Meta_Grind_Arith_Cutsat_SupportedTermKind_toCtorIdx.exit
  br label %lean_dec.exit

12:                                               ; preds = %l___private_Lean_Meta_Tactic_Grind_Arith_Cutsat_EqCnstr_0__Lean_Meta_Grind_Arith_Cutsat_SupportedTermKind_toCtorIdx.exit
  br label %lean_dec.exit

13:                                               ; preds = %l___private_Lean_Meta_Tactic_Grind_Arith_Cutsat_EqCnstr_0__Lean_Meta_Grind_Arith_Cutsat_SupportedTermKind_toCtorIdx.exit
  br label %lean_dec.exit

14:                                               ; preds = %l___private_Lean_Meta_Tactic_Grind_Arith_Cutsat_EqCnstr_0__Lean_Meta_Grind_Arith_Cutsat_SupportedTermKind_toCtorIdx.exit
  br label %lean_dec.exit

15:                                               ; preds = %l___private_Lean_Meta_Tactic_Grind_Arith_Cutsat_EqCnstr_0__Lean_Meta_Grind_Arith_Cutsat_SupportedTermKind_toCtorIdx.exit
  br label %lean_dec.exit

16:                                               ; preds = %l___private_Lean_Meta_Tactic_Grind_Arith_Cutsat_EqCnstr_0__Lean_Meta_Grind_Arith_Cutsat_SupportedTermKind_toCtorIdx.exit
  br label %lean_dec.exit

lean_dec.exit:                                    ; preds = %16, %15, %14, %13, %12, %11, %10, %l___private_Lean_Meta_Tactic_Grind_Arith_Cutsat_EqCnstr_0__Lean_Meta_Grind_Arith_Cutsat_SupportedTermKind_toCtorIdx.exit
  %.0.i10 = phi ptr [ inttoptr (i64 15 to ptr), %16 ], [ inttoptr (i64 13 to ptr), %15 ], [ inttoptr (i64 11 to ptr), %14 ], [ inttoptr (i64 9 to ptr), %13 ], [ inttoptr (i64 7 to ptr), %12 ], [ inttoptr (i64 5 to ptr), %11 ], [ inttoptr (i64 3 to ptr), %10 ], [ inttoptr (i64 1 to ptr), %l___private_Lean_Meta_Tactic_Grind_Arith_Cutsat_EqCnstr_0__Lean_Meta_Grind_Arith_Cutsat_SupportedTermKind_toCtorIdx.exit ]
  %17 = icmp eq ptr %.0.i9, %.0.i10
  %18 = zext i1 %17 to i8
  ret i8 %18
}